target datalayout = "e-m:e-p270:32:32-p271:32:32-p272:64:64-i64:64-i128:128-f80:128-n8:16:32:64-S128"
target triple = "x86_64-pc-linux-gnu"

%class.State = type { [315 x i32], [315 x i16], i32, ptr, [2 x ptr] }

@UsePopCountInstruction = external global i8, align 1

; Function Attrs: mustprogress nounwind uwtable
define hidden void @_ZN5State17_sub_Op_PopCountLEPK4Node(ptr noundef nonnull align 8 dereferenceable(1920) %0, ptr noundef %1) #1 align 2 {
  %3 = alloca ptr, align 8
  %4 = alloca ptr, align 8
  %5 = alloca i32, align 4
  %6 = alloca i32, align 4
  store ptr %0, ptr %3, align 8
  store ptr %1, ptr %4, align 8
  %7 = load ptr, ptr %3, align 8
  %8 = getelementptr inbounds %class.State, ptr %7, i32 0, i32 4
  %9 = getelementptr inbounds [2 x ptr], ptr %8, i64 0, i64 0
  %10 = load ptr, ptr %9, align 8
  %11 = icmp ne ptr %10, null
  br i1 %11, label %12, label %79

12:                                               ; preds = %2
  %13 = getelementptr inbounds %class.State, ptr %7, i32 0, i32 4
  %14 = getelementptr inbounds [2 x ptr], ptr %13, i64 0, i64 0
  %15 = load ptr, ptr %14, align 8
  %16 = getelementptr inbounds %class.State, ptr %15, i32 0, i32 1
  %17 = getelementptr inbounds [315 x i16], ptr %16, i64 0, i64 156
  %18 = load i16, ptr %17, align 4
  %19 = zext i16 %18 to i32
  %20 = and i32 %19, 1
  %21 = icmp ne i32 %20, 0
  br i1 %21, label %22, label %79

22:                                               ; preds = %12
  %23 = load i8, ptr @UsePopCountInstruction, align 1
  %24 = trunc i8 %23 to i1
  br i1 %24, label %25, label %79

25:                                               ; preds = %22
  %26 = getelementptr inbounds %class.State, ptr %7, i32 0, i32 4
  %27 = getelementptr inbounds [2 x ptr], ptr %26, i64 0, i64 0
  %28 = load ptr, ptr %27, align 8
  %29 = getelementptr inbounds %class.State, ptr %28, i32 0, i32 0
  %30 = getelementptr inbounds [315 x i32], ptr %29, i64 0, i64 156
  %31 = load i32, ptr %30, align 8
  %32 = add i32 %31, 100
  store i32 %32, ptr %5, align 4
  %33 = load i32, ptr %5, align 4
  %34 = getelementptr inbounds %class.State, ptr %7, i32 0, i32 0
  %35 = getelementptr inbounds [315 x i32], ptr %34, i64 0, i64 49
  store i32 %33, ptr %35, align 4
  %36 = getelementptr inbounds %class.State, ptr %7, i32 0, i32 1
  %37 = getelementptr inbounds [315 x i16], ptr %36, i64 0, i64 49
  store i16 1293, ptr %37, align 2
  %38 = load i32, ptr %5, align 4
  %39 = add i32 %38, 100
  %40 = getelementptr inbounds %class.State, ptr %7, i32 0, i32 0
  %41 = getelementptr inbounds [315 x i32], ptr %40, i64 0, i64 105
  store i32 %39, ptr %41, align 4
  %42 = getelementptr inbounds %class.State, ptr %7, i32 0, i32 1
  %43 = getelementptr inbounds [315 x i16], ptr %42, i64 0, i64 105
  store i16 631, ptr %43, align 2
  %44 = load i32, ptr %5, align 4
  %45 = getelementptr inbounds %class.State, ptr %7, i32 0, i32 0
  %46 = getelementptr inbounds [315 x i32], ptr %45, i64 0, i64 50
  store i32 %44, ptr %46, align 8
  %47 = getelementptr inbounds %class.State, ptr %7, i32 0, i32 1
  %48 = getelementptr inbounds [315 x i16], ptr %47, i64 0, i64 50
  store i16 1293, ptr %48, align 4
  %49 = load i32, ptr %5, align 4
  %50 = getelementptr inbounds %class.State, ptr %7, i32 0, i32 0
  %51 = getelementptr inbounds [315 x i32], ptr %50, i64 0, i64 56
  store i32 %49, ptr %51, align 8
  %52 = getelementptr inbounds %class.State, ptr %7, i32 0, i32 1
  %53 = getelementptr inbounds [315 x i16], ptr %52, i64 0, i64 56
  store i16 1293, ptr %53, align 4
  %54 = load i32, ptr %5, align 4
  %55 = getelementptr inbounds %class.State, ptr %7, i32 0, i32 0
  %56 = getelementptr inbounds [315 x i32], ptr %55, i64 0, i64 51
  store i32 %54, ptr %56, align 4
  %57 = getelementptr inbounds %class.State, ptr %7, i32 0, i32 1
  %58 = getelementptr inbounds [315 x i16], ptr %57, i64 0, i64 51
  store i16 1293, ptr %58, align 2
  %59 = load i32, ptr %5, align 4
  %60 = getelementptr inbounds %class.State, ptr %7, i32 0, i32 0
  %61 = getelementptr inbounds [315 x i32], ptr %60, i64 0, i64 55
  store i32 %59, ptr %61, align 4
  %62 = getelementptr inbounds %class.State, ptr %7, i32 0, i32 1
  %63 = getelementptr inbounds [315 x i16], ptr %62, i64 0, i64 55
  store i16 1293, ptr %63, align 2
  %64 = load i32, ptr %5, align 4
  %65 = getelementptr inbounds %class.State, ptr %7, i32 0, i32 0
  %66 = getelementptr inbounds [315 x i32], ptr %65, i64 0, i64 52
  store i32 %64, ptr %66, align 8
  %67 = getelementptr inbounds %class.State, ptr %7, i32 0, i32 1
  %68 = getelementptr inbounds [315 x i16], ptr %67, i64 0, i64 52
  store i16 1293, ptr %68, align 4
  %69 = load i32, ptr %5, align 4
  %70 = getelementptr inbounds %class.State, ptr %7, i32 0, i32 0
  %71 = getelementptr inbounds [315 x i32], ptr %70, i64 0, i64 53
  store i32 %69, ptr %71, align 4
  %72 = getelementptr inbounds %class.State, ptr %7, i32 0, i32 1
  %73 = getelementptr inbounds [315 x i16], ptr %72, i64 0, i64 53
  store i16 1293, ptr %73, align 2
  %74 = load i32, ptr %5, align 4
  %75 = getelementptr inbounds %class.State, ptr %7, i32 0, i32 0
  %76 = getelementptr inbounds [315 x i32], ptr %75, i64 0, i64 54
  store i32 %74, ptr %76, align 8
  %77 = getelementptr inbounds %class.State, ptr %7, i32 0, i32 1
  %78 = getelementptr inbounds [315 x i16], ptr %77, i64 0, i64 54
  store i16 1293, ptr %78, align 4
  br label %79

79:                                               ; preds = %25, %22, %12, %2
  %80 = getelementptr inbounds %class.State, ptr %7, i32 0, i32 4
  %81 = getelementptr inbounds [2 x ptr], ptr %80, i64 0, i64 0
  %82 = load ptr, ptr %81, align 8
  %83 = icmp ne ptr %82, null
  br i1 %83, label %84, label %278

84:                                               ; preds = %79
  %85 = getelementptr inbounds %class.State, ptr %7, i32 0, i32 4
  %86 = getelementptr inbounds [2 x ptr], ptr %85, i64 0, i64 0
  %87 = load ptr, ptr %86, align 8
  %88 = getelementptr inbounds %class.State, ptr %87, i32 0, i32 1
  %89 = getelementptr inbounds [315 x i16], ptr %88, i64 0, i64 68
  %90 = load i16, ptr %89, align 4
  %91 = zext i16 %90 to i32
  %92 = and i32 %91, 1
  %93 = icmp ne i32 %92, 0
  br i1 %93, label %94, label %278

94:                                               ; preds = %84
  %95 = load i8, ptr @UsePopCountInstruction, align 1
  %96 = trunc i8 %95 to i1
  br i1 %96, label %97, label %278

97:                                               ; preds = %94
  %98 = getelementptr inbounds %class.State, ptr %7, i32 0, i32 4
  %99 = getelementptr inbounds [2 x ptr], ptr %98, i64 0, i64 0
  %100 = load ptr, ptr %99, align 8
  %101 = getelementptr inbounds %class.State, ptr %100, i32 0, i32 0
  %102 = getelementptr inbounds [315 x i32], ptr %101, i64 0, i64 68
  %103 = load i32, ptr %102, align 8
  %104 = add i32 %103, 100
  store i32 %104, ptr %6, align 4
  %105 = getelementptr inbounds %class.State, ptr %7, i32 0, i32 1
  %106 = getelementptr inbounds [315 x i16], ptr %105, i64 0, i64 49
  %107 = load i16, ptr %106, align 2
  %108 = zext i16 %107 to i32
  %109 = and i32 %108, 1
  %110 = icmp eq i32 %109, 0
  br i1 %110, label %117, label %111

111:                                              ; preds = %97
  %112 = getelementptr inbounds %class.State, ptr %7, i32 0, i32 0
  %113 = getelementptr inbounds [315 x i32], ptr %112, i64 0, i64 49
  %114 = load i32, ptr %113, align 4
  %115 = load i32, ptr %6, align 4
  %116 = icmp ugt i32 %114, %115
  br i1 %116, label %117, label %123

117:                                              ; preds = %111, %97
  %118 = load i32, ptr %6, align 4
  %119 = getelementptr inbounds %class.State, ptr %7, i32 0, i32 0
  %120 = getelementptr inbounds [315 x i32], ptr %119, i64 0, i64 49
  store i32 %118, ptr %120, align 4
  %121 = getelementptr inbounds %class.State, ptr %7, i32 0, i32 1
  %122 = getelementptr inbounds [315 x i16], ptr %121, i64 0, i64 49
  store i16 1291, ptr %122, align 2
  br label %123

123:                                              ; preds = %117, %111
  %124 = getelementptr inbounds %class.State, ptr %7, i32 0, i32 1
  %125 = getelementptr inbounds [315 x i16], ptr %124, i64 0, i64 105
  %126 = load i16, ptr %125, align 2
  %127 = zext i16 %126 to i32
  %128 = and i32 %127, 1
  %129 = icmp eq i32 %128, 0
  br i1 %129, label %137, label %130

130:                                              ; preds = %123
  %131 = getelementptr inbounds %class.State, ptr %7, i32 0, i32 0
  %132 = getelementptr inbounds [315 x i32], ptr %131, i64 0, i64 105
  %133 = load i32, ptr %132, align 4
  %134 = load i32, ptr %6, align 4
  %135 = add i32 %134, 100
  %136 = icmp ugt i32 %133, %135
  br i1 %136, label %137, label %144

137:                                              ; preds = %130, %123
  %138 = load i32, ptr %6, align 4
  %139 = add i32 %138, 100
  %140 = getelementptr inbounds %class.State, ptr %7, i32 0, i32 0
  %141 = getelementptr inbounds [315 x i32], ptr %140, i64 0, i64 105
  store i32 %139, ptr %141, align 4
  %142 = getelementptr inbounds %class.State, ptr %7, i32 0, i32 1
  %143 = getelementptr inbounds [315 x i16], ptr %142, i64 0, i64 105
  store i16 631, ptr %143, align 2
  br label %144

144:                                              ; preds = %137, %130
  %145 = getelementptr inbounds %class.State, ptr %7, i32 0, i32 1
  %146 = getelementptr inbounds [315 x i16], ptr %145, i64 0, i64 50
  %147 = load i16, ptr %146, align 4
  %148 = zext i16 %147 to i32
  %149 = and i32 %148, 1
  %150 = icmp eq i32 %149, 0
  br i1 %150, label %157, label %151

151:                                              ; preds = %144
  %152 = getelementptr inbounds %class.State, ptr %7, i32 0, i32 0
  %153 = getelementptr inbounds [315 x i32], ptr %152, i64 0, i64 50
  %154 = load i32, ptr %153, align 8
  %155 = load i32, ptr %6, align 4
  %156 = icmp ugt i32 %154, %155
  br i1 %156, label %157, label %163

157:                                              ; preds = %151, %144
  %158 = load i32, ptr %6, align 4
  %159 = getelementptr inbounds %class.State, ptr %7, i32 0, i32 0
  %160 = getelementptr inbounds [315 x i32], ptr %159, i64 0, i64 50
  store i32 %158, ptr %160, align 8
  %161 = getelementptr inbounds %class.State, ptr %7, i32 0, i32 1
  %162 = getelementptr inbounds [315 x i16], ptr %161, i64 0, i64 50
  store i16 1291, ptr %162, align 4
  br label %163

163:                                              ; preds = %157, %151
  %164 = getelementptr inbounds %class.State, ptr %7, i32 0, i32 1
  %165 = getelementptr inbounds [315 x i16], ptr %164, i64 0, i64 56
  %166 = load i16, ptr %165, align 4
  %167 = zext i16 %166 to i32
  %168 = and i32 %167, 1
  %169 = icmp eq i32 %168, 0
  br i1 %169, label %176, label %170

170:                                              ; preds = %163
  %171 = getelementptr inbounds %class.State, ptr %7, i32 0, i32 0
  %172 = getelementptr inbounds [315 x i32], ptr %171, i64 0, i64 56
  %173 = load i32, ptr %172, align 8
  %174 = load i32, ptr %6, align 4
  %175 = icmp ugt i32 %173, %174
  br i1 %175, label %176, label %182

176:                                              ; preds = %170, %163
  %177 = load i32, ptr %6, align 4
  %178 = getelementptr inbounds %class.State, ptr %7, i32 0, i32 0
  %179 = getelementptr inbounds [315 x i32], ptr %178, i64 0, i64 56
  store i32 %177, ptr %179, align 8
  %180 = getelementptr inbounds %class.State, ptr %7, i32 0, i32 1
  %181 = getelementptr inbounds [315 x i16], ptr %180, i64 0, i64 56
  store i16 1291, ptr %181, align 4
  br label %182

182:                                              ; preds = %176, %170
  %183 = getelementptr inbounds %class.State, ptr %7, i32 0, i32 1
  %184 = getelementptr inbounds [315 x i16], ptr %183, i64 0, i64 51
  %185 = load i16, ptr %184, align 2
  %186 = zext i16 %185 to i32
  %187 = and i32 %186, 1
  %188 = icmp eq i32 %187, 0
  br i1 %188, label %195, label %189

189:                                              ; preds = %182
  %190 = getelementptr inbounds %class.State, ptr %7, i32 0, i32 0
  %191 = getelementptr inbounds [315 x i32], ptr %190, i64 0, i64 51
  %192 = load i32, ptr %191, align 4
  %193 = load i32, ptr %6, align 4
  %194 = icmp ugt i32 %192, %193
  br i1 %194, label %195, label %201

195:                                              ; preds = %189, %182
  %196 = load i32, ptr %6, align 4
  %197 = getelementptr inbounds %class.State, ptr %7, i32 0, i32 0
  %198 = getelementptr inbounds [315 x i32], ptr %197, i64 0, i64 51
  store i32 %196, ptr %198, align 4
  %199 = getelementptr inbounds %class.State, ptr %7, i32 0, i32 1
  %200 = getelementptr inbounds [315 x i16], ptr %199, i64 0, i64 51
  store i16 1291, ptr %200, align 2
  br label %201

201:                                              ; preds = %195, %189
  %202 = getelementptr inbounds %class.State, ptr %7, i32 0, i32 1
  %203 = getelementptr inbounds [315 x i16], ptr %202, i64 0, i64 55
  %204 = load i16, ptr %203, align 2
  %205 = zext i16 %204 to i32
  %206 = and i32 %205, 1
  %207 = icmp eq i32 %206, 0
  br i1 %207, label %214, label %208

208:                                              ; preds = %201
  %209 = getelementptr inbounds %class.State, ptr %7, i32 0, i32 0
  %210 = getelementptr inbounds [315 x i32], ptr %209, i64 0, i64 55
  %211 = load i32, ptr %210, align 4
  %212 = load i32, ptr %6, align 4
  %213 = icmp ugt i32 %211, %212
  br i1 %213, label %214, label %220

214:                                              ; preds = %208, %201
  %215 = load i32, ptr %6, align 4
  %216 = getelementptr inbounds %class.State, ptr %7, i32 0, i32 0
  %217 = getelementptr inbounds [315 x i32], ptr %216, i64 0, i64 55
  store i32 %215, ptr %217, align 4
  %218 = getelementptr inbounds %class.State, ptr %7, i32 0, i32 1
  %219 = getelementptr inbounds [315 x i16], ptr %218, i64 0, i64 55
  store i16 1291, ptr %219, align 2
  br label %220

220:                                              ; preds = %214, %208
  %221 = getelementptr inbounds %class.State, ptr %7, i32 0, i32 1
  %222 = getelementptr inbounds [315 x i16], ptr %221, i64 0, i64 52
  %223 = load i16, ptr %222, align 4
  %224 = zext i16 %223 to i32
  %225 = and i32 %224, 1
  %226 = icmp eq i32 %225, 0
  br i1 %226, label %233, label %227

227:                                              ; preds = %220
  %228 = getelementptr inbounds %class.State, ptr %7, i32 0, i32 0
  %229 = getelementptr inbounds [315 x i32], ptr %228, i64 0, i64 52
  %230 = load i32, ptr %229, align 8
  %231 = load i32, ptr %6, align 4
  %232 = icmp ugt i32 %230, %231
  br i1 %232, label %233, label %239

233:                                              ; preds = %227, %220
  %234 = load i32, ptr %6, align 4
  %235 = getelementptr inbounds %class.State, ptr %7, i32 0, i32 0
  %236 = getelementptr inbounds [315 x i32], ptr %235, i64 0, i64 52
  store i32 %234, ptr %236, align 8
  %237 = getelementptr inbounds %class.State, ptr %7, i32 0, i32 1
  %238 = getelementptr inbounds [315 x i16], ptr %237, i64 0, i64 52
  store i16 1291, ptr %238, align 4
  br label %239

239:                                              ; preds = %233, %227
  %240 = getelementptr inbounds %class.State, ptr %7, i32 0, i32 1
  %241 = getelementptr inbounds [315 x i16], ptr %240, i64 0, i64 53
  %242 = load i16, ptr %241, align 2
  %243 = zext i16 %242 to i32
  %244 = and i32 %243, 1
  %245 = icmp eq i32 %244, 0
  br i1 %245, label %252, label %246

246:                                              ; preds = %239
  %247 = getelementptr inbounds %class.State, ptr %7, i32 0, i32 0
  %248 = getelementptr inbounds [315 x i32], ptr %247, i64 0, i64 53
  %249 = load i32, ptr %248, align 4
  %250 = load i32, ptr %6, align 4
  %251 = icmp ugt i32 %249, %250
  br i1 %251, label %252, label %258

252:                                              ; preds = %246, %239
  %253 = load i32, ptr %6, align 4
  %254 = getelementptr inbounds %class.State, ptr %7, i32 0, i32 0
  %255 = getelementptr inbounds [315 x i32], ptr %254, i64 0, i64 53
  store i32 %253, ptr %255, align 4
  %256 = getelementptr inbounds %class.State, ptr %7, i32 0, i32 1
  %257 = getelementptr inbounds [315 x i16], ptr %256, i64 0, i64 53
  store i16 1291, ptr %257, align 2
  br label %258

258:                                              ; preds = %252, %246
  %259 = getelementptr inbounds %class.State, ptr %7, i32 0, i32 1
  %260 = getelementptr inbounds [315 x i16], ptr %259, i64 0, i64 54
  %261 = load i16, ptr %260, align 4
  %262 = zext i16 %261 to i32
  %263 = and i32 %262, 1
  %264 = icmp eq i32 %263, 0
  br i1 %264, label %271, label %265

265:                                              ; preds = %258
  %266 = getelementptr inbounds %class.State, ptr %7, i32 0, i32 0
  %267 = getelementptr inbounds [315 x i32], ptr %266, i64 0, i64 54
  %268 = load i32, ptr %267, align 8
  %269 = load i32, ptr %6, align 4
  %270 = icmp ugt i32 %268, %269
  br i1 %270, label %271, label %277

271:                                              ; preds = %265, %258
  %272 = load i32, ptr %6, align 4
  %273 = getelementptr inbounds %class.State, ptr %7, i32 0, i32 0
  %274 = getelementptr inbounds [315 x i32], ptr %273, i64 0, i64 54
  store i32 %272, ptr %274, align 8
  %275 = getelementptr inbounds %class.State, ptr %7, i32 0, i32 1
  %276 = getelementptr inbounds [315 x i16], ptr %275, i64 0, i64 54
  store i16 1291, ptr %276, align 4
  br label %277

277:                                              ; preds = %271, %265
  br label %278

278:                                              ; preds = %277, %94, %84, %79
  ret void
}