; Function Attrs: mustprogress nofree norecurse nosync nounwind willreturn memory(read, argmem: readwrite, inaccessiblemem: none) uwtable
define hidden void @_ZN5State17_sub_Op_PopCountLEPK4Node(ptr nocapture noundef nonnull align 8 dereferenceable(1920) %0, ptr nocapture readnone %1) local_unnamed_addr #1 align 2 {
  %3 = getelementptr inbounds i8, ptr %0, i64 1904
  %4 = load ptr, ptr %3, align 8
  %.not = icmp eq ptr %4, null
  br i1 %.not, label %118, label %5

5:                                                ; preds = %2
  %6 = getelementptr inbounds i8, ptr %4, i64 1572
  %7 = load i16, ptr %6, align 4
  %8 = and i16 %7, 1
  %.not28 = icmp eq i16 %8, 0
  br i1 %.not28, label %24, label %9

9:                                                ; preds = %5
  %10 = load i8, ptr @UsePopCountInstruction, align 1
  %11 = trunc i8 %10 to i1
  br i1 %11, label %12, label %24

12:                                               ; preds = %9
  %13 = getelementptr inbounds i8, ptr %4, i64 624
  %14 = load i32, ptr %13, align 8
  %15 = add i32 %14, 100
  %16 = getelementptr inbounds i8, ptr %0, i64 196
  %17 = getelementptr inbounds i8, ptr %0, i64 1358
  %18 = add i32 %14, 200
  %19 = getelementptr inbounds i8, ptr %0, i64 420
  store i32 %18, ptr %19, align 4
  %20 = getelementptr inbounds i8, ptr %0, i64 1470
  store i16 631, ptr %20, align 2
  %21 = insertelement <4 x i32> poison, i32 %15, i64 0
  %22 = shufflevector <4 x i32> %21, <4 x i32> poison, <4 x i32> zeroinitializer
  store <4 x i32> %22, ptr %16, align 4
  %23 = getelementptr inbounds i8, ptr %0, i64 212
  store <4 x i32> %22, ptr %23, align 4
  store <8 x i16> <i16 1293, i16 1293, i16 1293, i16 1293, i16 1293, i16 1293, i16 1293, i16 1293>, ptr %17, align 2
  br label %24

24:                                               ; preds = %12, %9, %5
  %25 = getelementptr inbounds i8, ptr %4, i64 1396
  %26 = load i16, ptr %25, align 4
  %27 = and i16 %26, 1
  %.not30 = icmp eq i16 %27, 0
  br i1 %.not30, label %118, label %28

28:                                               ; preds = %24
  %29 = load i8, ptr @UsePopCountInstruction, align 1
  %30 = trunc i8 %29 to i1
  br i1 %30, label %31, label %118

31:                                               ; preds = %28
  %32 = getelementptr inbounds i8, ptr %4, i64 272
  %33 = load i32, ptr %32, align 8
  %34 = add i32 %33, 100
  %35 = getelementptr inbounds i8, ptr %0, i64 1358
  %36 = load i16, ptr %35, align 2
  %37 = and i16 %36, 1
  %38 = icmp eq i16 %37, 0
  %39 = getelementptr inbounds i8, ptr %0, i64 196
  %40 = load i32, ptr %39, align 4
  %41 = icmp ugt i32 %40, %34
  %or.cond = select i1 %38, i1 true, i1 %41
  br i1 %or.cond, label %42, label %43

42:                                               ; preds = %31
  store i32 %34, ptr %39, align 4
  store i16 1291, ptr %35, align 2
  br label %43

43:                                               ; preds = %31, %42
  %44 = getelementptr inbounds i8, ptr %0, i64 1470
  %45 = load i16, ptr %44, align 2
  %46 = and i16 %45, 1
  %47 = icmp eq i16 %46, 0
  br i1 %47, label %._crit_edge, label %48

._crit_edge:                                      ; preds = %43
  %.pre = add i32 %33, 200
  br label %53

48:                                               ; preds = %43
  %49 = getelementptr inbounds i8, ptr %0, i64 420
  %50 = load i32, ptr %49, align 4
  %51 = add i32 %33, 200
  %52 = icmp ugt i32 %50, %51
  br i1 %52, label %53, label %55

53:                                               ; preds = %._crit_edge, %48
  %.pre-phi = phi i32 [ %.pre, %._crit_edge ], [ %51, %48 ]
  %54 = getelementptr inbounds i8, ptr %0, i64 420
  store i32 %.pre-phi, ptr %54, align 4
  store i16 631, ptr %44, align 2
  br label %55

55:                                               ; preds = %53, %48
  %56 = getelementptr inbounds i8, ptr %0, i64 1360
  %57 = load i16, ptr %56, align 8
  %58 = and i16 %57, 1
  %59 = icmp eq i16 %58, 0
  %60 = getelementptr inbounds i8, ptr %0, i64 200
  %61 = load i32, ptr %60, align 8
  %62 = icmp ugt i32 %61, %34
  %or.cond35 = select i1 %59, i1 true, i1 %62
  br i1 %or.cond35, label %63, label %64

63:                                               ; preds = %55
  store i32 %34, ptr %60, align 8
  store i16 1291, ptr %56, align 8
  br label %64

64:                                               ; preds = %55, %63
  %65 = getelementptr inbounds i8, ptr %0, i64 1372
  %66 = load i16, ptr %65, align 4
  %67 = and i16 %66, 1
  %68 = icmp eq i16 %67, 0
  %69 = getelementptr inbounds i8, ptr %0, i64 224
  %70 = load i32, ptr %69, align 8
  %71 = icmp ugt i32 %70, %34
  %or.cond38 = select i1 %68, i1 true, i1 %71
  br i1 %or.cond38, label %72, label %73

72:                                               ; preds = %64
  store i32 %34, ptr %69, align 8
  store i16 1291, ptr %65, align 4
  br label %73

73:                                               ; preds = %64, %72
  %74 = getelementptr inbounds i8, ptr %0, i64 1362
  %75 = load i16, ptr %74, align 2
  %76 = and i16 %75, 1
  %77 = icmp eq i16 %76, 0
  %78 = getelementptr inbounds i8, ptr %0, i64 204
  %79 = load i32, ptr %78, align 4
  %80 = icmp ugt i32 %79, %34
  %or.cond41 = select i1 %77, i1 true, i1 %80
  br i1 %or.cond41, label %81, label %82

81:                                               ; preds = %73
  store i32 %34, ptr %78, align 4
  store i16 1291, ptr %74, align 2
  br label %82

82:                                               ; preds = %73, %81
  %83 = getelementptr inbounds i8, ptr %0, i64 1370
  %84 = load i16, ptr %83, align 2
  %85 = and i16 %84, 1
  %86 = icmp eq i16 %85, 0
  %87 = getelementptr inbounds i8, ptr %0, i64 220
  %88 = load i32, ptr %87, align 4
  %89 = icmp ugt i32 %88, %34
  %or.cond44 = select i1 %86, i1 true, i1 %89
  br i1 %or.cond44, label %90, label %91

90:                                               ; preds = %82
  store i32 %34, ptr %87, align 4
  store i16 1291, ptr %83, align 2
  br label %91

91:                                               ; preds = %82, %90
  %92 = getelementptr inbounds i8, ptr %0, i64 1364
  %93 = load i16, ptr %92, align 4
  %94 = and i16 %93, 1
  %95 = icmp eq i16 %94, 0
  %96 = getelementptr inbounds i8, ptr %0, i64 208
  %97 = load i32, ptr %96, align 8
  %98 = icmp ugt i32 %97, %34
  %or.cond47 = select i1 %95, i1 true, i1 %98
  br i1 %or.cond47, label %99, label %100

99:                                               ; preds = %91
  store i32 %34, ptr %96, align 8
  store i16 1291, ptr %92, align 4
  br label %100

100:                                              ; preds = %91, %99
  %101 = getelementptr inbounds i8, ptr %0, i64 1366
  %102 = load i16, ptr %101, align 2
  %103 = and i16 %102, 1
  %104 = icmp eq i16 %103, 0
  %105 = getelementptr inbounds i8, ptr %0, i64 212
  %106 = load i32, ptr %105, align 4
  %107 = icmp ugt i32 %106, %34
  %or.cond50 = select i1 %104, i1 true, i1 %107
  br i1 %or.cond50, label %108, label %109

108:                                              ; preds = %100
  store i32 %34, ptr %105, align 4
  store i16 1291, ptr %101, align 2
  br label %109

109:                                              ; preds = %100, %108
  %110 = getelementptr inbounds i8, ptr %0, i64 1368
  %111 = load i16, ptr %110, align 8
  %112 = and i16 %111, 1
  %113 = icmp eq i16 %112, 0
  %114 = getelementptr inbounds i8, ptr %0, i64 216
  %115 = load i32, ptr %114, align 8
  %116 = icmp ugt i32 %115, %34
  %or.cond53 = select i1 %113, i1 true, i1 %116
  br i1 %or.cond53, label %117, label %118

117:                                              ; preds = %109
  store i32 %34, ptr %114, align 8
  store i16 1291, ptr %110, align 8
  br label %118

118:                                              ; preds = %2, %109, %117, %28, %24
  ret void
}